target datalayout = "e-m:e-p270:32:32-p271:32:32-p272:64:64-i64:64-i128:128-f80:128-n8:16:32:64-S128"
target triple = "x86_64-pc-linux-gnu"

%struct.HTAB = type { ptr, ptr, ptr, ptr, ptr, ptr, ptr, ptr, i8, i8, i8, i64, i64, i32 }
%struct.HASH_SEQ_STATUS = type { ptr, i32, ptr, i8, i32 }

@.str.2 = private unnamed_addr constant [11 x i8] c"dynahash.c\00", align 1
@num_seq_scans = internal global i32 0, align 4
@seq_scan_tables = internal global [100 x ptr] zeroinitializer, align 16
@seq_scan_level = internal global [100 x i32] zeroinitializer, align 16
@.str.15 = private unnamed_addr constant [44 x i8] c"no hash_seq_search scan for hash table \22%s\22\00", align 1
@__func__.deregister_seq_scan = private unnamed_addr constant [20 x i8] c"deregister_seq_scan\00", align 1

; Function Attrs: nounwind uwtable
define internal void @deregister_seq_scan(ptr noundef %0) #0 {
  %2 = alloca ptr, align 8
  %3 = alloca i32, align 4
  %4 = alloca i32, align 4
  store ptr %0, ptr %2, align 8
  call void @llvm.lifetime.start.p0(i64 4, ptr %3) #11
  %5 = load i32, ptr @num_seq_scans, align 4
  %6 = sub i32 %5, 1
  store i32 %6, ptr %3, align 4
  br label %7

7:                                                ; preds = %37, %1
  %8 = load i32, ptr %3, align 4
  %9 = icmp sge i32 %8, 0
  br i1 %9, label %10, label %40

10:                                               ; preds = %7
  %11 = load i32, ptr %3, align 4
  %12 = sext i32 %11 to i64
  %13 = getelementptr inbounds [100 x ptr], ptr @seq_scan_tables, i64 0, i64 %12
  %14 = load ptr, ptr %13, align 8
  %15 = load ptr, ptr %2, align 8
  %16 = icmp eq ptr %14, %15
  br i1 %16, label %17, label %36

17:                                               ; preds = %10
  %18 = load i32, ptr @num_seq_scans, align 4
  %19 = sub i32 %18, 1
  %20 = sext i32 %19 to i64
  %21 = getelementptr inbounds [100 x ptr], ptr @seq_scan_tables, i64 0, i64 %20
  %22 = load ptr, ptr %21, align 8
  %23 = load i32, ptr %3, align 4
  %24 = sext i32 %23 to i64
  %25 = getelementptr inbounds [100 x ptr], ptr @seq_scan_tables, i64 0, i64 %24
  store ptr %22, ptr %25, align 8
  %26 = load i32, ptr @num_seq_scans, align 4
  %27 = sub i32 %26, 1
  %28 = sext i32 %27 to i64
  %29 = getelementptr inbounds [100 x i32], ptr @seq_scan_level, i64 0, i64 %28
  %30 = load i32, ptr %29, align 4
  %31 = load i32, ptr %3, align 4
  %32 = sext i32 %31 to i64
  %33 = getelementptr inbounds [100 x i32], ptr @seq_scan_level, i64 0, i64 %32
  store i32 %30, ptr %33, align 4
  %34 = load i32, ptr @num_seq_scans, align 4
  %35 = add i32 %34, -1
  store i32 %35, ptr @num_seq_scans, align 4
  store i32 1, ptr %4, align 4
  br label %54

36:                                               ; preds = %10
  br label %37

37:                                               ; preds = %36
  %38 = load i32, ptr %3, align 4
  %39 = add i32 %38, -1
  store i32 %39, ptr %3, align 4
  br label %7, !llvm.loop !34

40:                                               ; preds = %7
  br label %41

41:                                               ; preds = %40
  br i1 true, label %42, label %44

42:                                               ; preds = %41
  %43 = call zeroext i1 @errstart_cold(i32 noundef 21, ptr noundef null) #13
  br i1 %43, label %46, label %51

44:                                               ; preds = %41
  %45 = call zeroext i1 @errstart(i32 noundef 21, ptr noundef null)
  br i1 %45, label %46, label %51

46:                                               ; preds = %44, %42
  %47 = load ptr, ptr %2, align 8
  %48 = getelementptr inbounds nuw %struct.HTAB, ptr %47, i32 0, i32 7
  %49 = load ptr, ptr %48, align 8
  %50 = call i32 (ptr, ...) @errmsg_internal(ptr noundef @.str.15, ptr noundef %49)
  call void @errfinish(ptr noundef @.str.2, i32 noundef 1893, ptr noundef @__func__.deregister_seq_scan)
  br label %51

51:                                               ; preds = %46, %44, %42
  unreachable

52:                                               ; No predecessors!
  br label %53

53:                                               ; preds = %52
  store i32 0, ptr %4, align 4
  br label %54

54:                                               ; preds = %53, %17
  call void @llvm.lifetime.end.p0(i64 4, ptr %3) #11
  %55 = load i32, ptr %4, align 4
  switch i32 %55, label %57 [
    i32 0, label %56
    i32 1, label %56
  ]

56:                                               ; preds = %54, %54
  ret void

57:                                               ; preds = %54
  unreachable
}

; Function Attrs: nounwind uwtable
define dso_local void @hash_seq_term(ptr noundef %0) #0 {
  %2 = alloca ptr, align 8
  store ptr %0, ptr %2, align 8
  %3 = load ptr, ptr %2, align 8
  %4 = getelementptr inbounds nuw %struct.HASH_SEQ_STATUS, ptr %3, i32 0, i32 0
  %5 = load ptr, ptr %4, align 8
  %6 = getelementptr inbounds nuw %struct.HTAB, ptr %5, i32 0, i32 10
  %7 = load i8, ptr %6, align 2, !range !12, !noundef !13
  %8 = trunc i8 %7 to i1
  br i1 %8, label %13, label %9

9:                                                ; preds = %1
  %10 = load ptr, ptr %2, align 8
  %11 = getelementptr inbounds nuw %struct.HASH_SEQ_STATUS, ptr %10, i32 0, i32 0
  %12 = load ptr, ptr %11, align 8
  call void @deregister_seq_scan(ptr noundef %12)
  br label %13

13:                                               ; preds = %9, %1
  ret void
}