; Function Attrs: nounwind uwtable
define dso_local void @hash_seq_term(ptr noundef readonly captures(none) %0) local_unnamed_addr #0 {
  %2 = load ptr, ptr %0, align 8
  %3 = getelementptr inbounds nuw i8, ptr %2, i64 66
  %4 = load i8, ptr %3, align 2, !range !10, !noundef !11
  %5 = trunc nuw i8 %4 to i1
  br i1 %5, label %30, label %6

6:                                                ; preds = %1
  %7 = load i32, ptr @num_seq_scans, align 4
  %8 = zext i32 %7 to i64
  br label %9

9:                                                ; preds = %12, %6
  %indvars.iv.i = phi i64 [ %indvars.iv.next.i, %12 ], [ %8, %6 ]
  %indvars.iv.next.i = add nsw i64 %indvars.iv.i, -1
  %10 = and i64 %indvars.iv.next.i, 2147483648
  %11 = icmp eq i64 %10, 0
  br i1 %11, label %12, label %17

12:                                               ; preds = %9
  %13 = and i64 %indvars.iv.next.i, 2147483647
  %14 = getelementptr inbounds nuw [100 x ptr], ptr @seq_scan_tables, i64 0, i64 %13
  %15 = load ptr, ptr %14, align 8
  %16 = icmp eq ptr %15, %2
  br i1 %16, label %deregister_seq_scan.exit, label %9, !llvm.loop !31

17:                                               ; preds = %9
  %18 = tail call zeroext i1 @errstart_cold(i32 noundef 21, ptr noundef null) #19
  tail call void @llvm.assume(i1 %18)
  %19 = getelementptr inbounds nuw i8, ptr %2, i64 56
  %20 = load ptr, ptr %19, align 8
  %21 = tail call i32 (ptr, ...) @errmsg_internal(ptr noundef nonnull @.str.15, ptr noundef %20) #17
  tail call void @errfinish(ptr noundef nonnull @.str.2, i32 noundef 1893, ptr noundef nonnull @__func__.deregister_seq_scan) #17
  unreachable

deregister_seq_scan.exit:                         ; preds = %12
  %22 = getelementptr inbounds nuw [100 x ptr], ptr @seq_scan_tables, i64 0, i64 %13
  %23 = add i32 %7, -1
  %24 = sext i32 %23 to i64
  %25 = getelementptr inbounds [100 x ptr], ptr @seq_scan_tables, i64 0, i64 %24
  %26 = load ptr, ptr %25, align 8
  store ptr %26, ptr %22, align 8
  %27 = getelementptr inbounds [100 x i32], ptr @seq_scan_level, i64 0, i64 %24
  %28 = load i32, ptr %27, align 4
  %29 = getelementptr inbounds nuw [100 x i32], ptr @seq_scan_level, i64 0, i64 %13
  store i32 %28, ptr %29, align 4
  store i32 %23, ptr @num_seq_scans, align 4
  br label %30

30:                                               ; preds = %deregister_seq_scan.exit, %1
  ret void
}